#include <math.h>
#include <stdio.h>
#include <stdlib.h>
#include <string.h>

int main()
{
char a[101];
gets(a);
int l=strlen(a);
int k=1;
char b[101];
b[0]=a[0];
for(int i=1;i<=l;i++)
{
if(a[i]!=' ')
{b[k]=a[i];
k++;continue;}
if(a[i-1]!=' ')
{b[k]=a[i];
k++;continue;}
}
printf("%s",b);
return 0;
}

